target datalayout = "e-m:e-p270:32:32-p271:32:32-p272:64:64-i64:64-i128:128-f80:128-n8:16:32:64-S128"
target triple = "x86_64-pc-linux-gnu"

@stderr = external global ptr, align 8
@.str.1 = private unnamed_addr constant [5 x i8] c"%s: \00", align 1
@progname = internal global ptr @.str.4, align 8
@.str.5 = private unnamed_addr constant [21 x i8] c"'%s' needs argument\0A\00", align 1
@.str.6 = private unnamed_addr constant [26 x i8] c"unrecognized option '%s'\0A\00", align 1

; Function Attrs: nounwind uwtable
define internal void @print_usage(ptr noundef %0) #0 {
  %2 = alloca ptr, align 8
  store ptr %0, ptr %2, align 8, !tbaa !13
  %3 = load ptr, ptr @stderr, align 8, !tbaa !15
  %4 = load ptr, ptr @progname, align 8, !tbaa !13
  %5 = call i32 (ptr, ptr, ...) @fprintf(ptr noundef %3, ptr noundef @.str.1, ptr noundef %4) #5
  %6 = load ptr, ptr @stderr, align 8, !tbaa !15
  %7 = call i32 @fflush(ptr noundef %6)
  %8 = load ptr, ptr %2, align 8, !tbaa !13
  %9 = getelementptr inbounds i8, ptr %8, i64 1
  %10 = load i8, ptr %9, align 1, !tbaa !19
  %11 = sext i8 %10 to i32
  %12 = icmp eq i32 %11, 101
  br i1 %12, label %19, label %13

13:                                               ; preds = %1
  %14 = load ptr, ptr %2, align 8, !tbaa !13
  %15 = getelementptr inbounds i8, ptr %14, i64 1
  %16 = load i8, ptr %15, align 1, !tbaa !19
  %17 = sext i8 %16 to i32
  %18 = icmp eq i32 %17, 108
  br i1 %18, label %19, label %25

19:                                               ; preds = %13, %1
  %20 = load ptr, ptr @stderr, align 8, !tbaa !15
  %21 = load ptr, ptr %2, align 8, !tbaa !13
  %22 = call i32 (ptr, ptr, ...) @fprintf(ptr noundef %20, ptr noundef @.str.5, ptr noundef %21) #5
  %23 = load ptr, ptr @stderr, align 8, !tbaa !15
  %24 = call i32 @fflush(ptr noundef %23)
  br label %31

25:                                               ; preds = %13
  %26 = load ptr, ptr @stderr, align 8, !tbaa !15
  %27 = load ptr, ptr %2, align 8, !tbaa !13
  %28 = call i32 (ptr, ptr, ...) @fprintf(ptr noundef %26, ptr noundef @.str.6, ptr noundef %27) #5
  %29 = load ptr, ptr @stderr, align 8, !tbaa !15
  %30 = call i32 @fflush(ptr noundef %29)
  br label %31

31:                                               ; preds = %25, %19
  %32 = load ptr, ptr @stderr, align 8, !tbaa !15
  %33 = load ptr, ptr @progname, align 8, !tbaa !13
  %34 = call i32 (ptr, ptr, ...) @fprintf(ptr noundef %32, ptr noundef @.str.7, ptr noundef %33) #5
  %35 = load ptr, ptr @stderr, align 8, !tbaa !15
  %36 = call i32 @fflush(ptr noundef %35)
  ret void
}